target datalayout = "e-m:e-p270:32:32-p271:32:32-p272:64:64-i64:64-i128:128-f80:128-n8:16:32:64-S128"
target triple = "x86_64-pc-linux-gnu"

%"class.gmx::internal::AnalysisNeighborhoodSearchImpl" = type { i8, float, float, i8, i32, ptr, ptr, ptr, ptr, %struct.t_pbc, i8, i8, [3 x i8], %"class.std::vector", [3 x float], [3 x float], [3 x float], float, float, float, [3 x i32], %"class.std::vector.0", %"class.std::mutex", %"class.std::vector.5" }
%struct.t_pbc = type { i32, i32, i32, i32, [3 x [3 x float]], [3 x float], [3 x float], [3 x float], float, i32, [12 x [3 x i32]], [12 x [3 x float]] }
%"class.std::vector" = type { %"struct.std::_Vector_base" }
%"struct.std::_Vector_base" = type { %"struct.std::_Vector_base<gmx::BasicVector<float>, std::allocator<gmx::BasicVector<float>>>::_Vector_impl" }
%"struct.std::_Vector_base<gmx::BasicVector<float>, std::allocator<gmx::BasicVector<float>>>::_Vector_impl" = type { %"struct.std::_Vector_base<gmx::BasicVector<float>, std::allocator<gmx::BasicVector<float>>>::_Vector_impl_data" }
%"struct.std::_Vector_base<gmx::BasicVector<float>, std::allocator<gmx::BasicVector<float>>>::_Vector_impl_data" = type { ptr, ptr, ptr }
%"class.std::vector.0" = type { %"struct.std::_Vector_base.1" }
%"struct.std::_Vector_base.1" = type { %"struct.std::_Vector_base<std::vector<int>, std::allocator<std::vector<int>>>::_Vector_impl" }
%"struct.std::_Vector_base<std::vector<int>, std::allocator<std::vector<int>>>::_Vector_impl" = type { %"struct.std::_Vector_base<std::vector<int>, std::allocator<std::vector<int>>>::_Vector_impl_data" }
%"struct.std::_Vector_base<std::vector<int>, std::allocator<std::vector<int>>>::_Vector_impl_data" = type { ptr, ptr, ptr }
%"class.std::mutex" = type { %"class.std::__mutex_base" }
%"class.std::__mutex_base" = type { %union.pthread_mutex_t }
%union.pthread_mutex_t = type { %struct.__pthread_mutex_s }
%struct.__pthread_mutex_s = type { i32, i32, i32, i32, i32, i16, i16, %struct.__pthread_internal_list }
%struct.__pthread_internal_list = type { ptr, ptr }
%"class.std::vector.5" = type { %"struct.std::_Vector_base.6" }
%"struct.std::_Vector_base.6" = type { %"struct.std::_Vector_base<std::shared_ptr<gmx::internal::AnalysisNeighborhoodPairSearchImpl>, std::allocator<std::shared_ptr<gmx::internal::AnalysisNeighborhoodPairSearchImpl>>>::_Vector_impl" }
%"struct.std::_Vector_base<std::shared_ptr<gmx::internal::AnalysisNeighborhoodPairSearchImpl>, std::allocator<std::shared_ptr<gmx::internal::AnalysisNeighborhoodPairSearchImpl>>>::_Vector_impl" = type { %"struct.std::_Vector_base<std::shared_ptr<gmx::internal::AnalysisNeighborhoodPairSearchImpl>, std::allocator<std::shared_ptr<gmx::internal::AnalysisNeighborhoodPairSearchImpl>>>::_Vector_impl_data" }
%"struct.std::_Vector_base<std::shared_ptr<gmx::internal::AnalysisNeighborhoodPairSearchImpl>, std::allocator<std::shared_ptr<gmx::internal::AnalysisNeighborhoodPairSearchImpl>>>::_Vector_impl_data" = type { ptr, ptr, ptr }

; Function Attrs: mustprogress nounwind uwtable
define noundef i32 @_ZNK3gmx8internal30AnalysisNeighborhoodSearchImpl16getGridCellIndexEPKi(ptr noundef nonnull align 8 dereferenceable(624) %0, ptr noundef %1) #1 align 2 {
  %3 = alloca ptr, align 8
  %4 = alloca ptr, align 8
  store ptr %0, ptr %3, align 8, !tbaa !4
  store ptr %1, ptr %4, align 8, !tbaa !56
  %5 = load ptr, ptr %3, align 8
  %6 = load ptr, ptr %4, align 8, !tbaa !56
  %7 = getelementptr inbounds i32, ptr %6, i64 0
  %8 = load i32, ptr %7, align 4, !tbaa !57
  %9 = load ptr, ptr %4, align 8, !tbaa !56
  %10 = getelementptr inbounds i32, ptr %9, i64 1
  %11 = load i32, ptr %10, align 4, !tbaa !57
  %12 = getelementptr inbounds nuw %"class.gmx::internal::AnalysisNeighborhoodSearchImpl", ptr %5, i32 0, i32 20
  %13 = getelementptr inbounds [3 x i32], ptr %12, i64 0, i64 0
  %14 = load i32, ptr %13, align 8, !tbaa !57
  %15 = mul nsw i32 %11, %14
  %16 = add nsw i32 %8, %15
  %17 = load ptr, ptr %4, align 8, !tbaa !56
  %18 = getelementptr inbounds i32, ptr %17, i64 2
  %19 = load i32, ptr %18, align 4, !tbaa !57
  %20 = getelementptr inbounds nuw %"class.gmx::internal::AnalysisNeighborhoodSearchImpl", ptr %5, i32 0, i32 20
  %21 = getelementptr inbounds [3 x i32], ptr %20, i64 0, i64 0
  %22 = load i32, ptr %21, align 8, !tbaa !57
  %23 = mul nsw i32 %19, %22
  %24 = getelementptr inbounds nuw %"class.gmx::internal::AnalysisNeighborhoodSearchImpl", ptr %5, i32 0, i32 20
  %25 = getelementptr inbounds [3 x i32], ptr %24, i64 0, i64 1
  %26 = load i32, ptr %25, align 4, !tbaa !57
  %27 = mul nsw i32 %23, %26
  %28 = add nsw i32 %16, %27
  ret i32 %28
}

; Function Attrs: inlinehint mustprogress nounwind uwtable
define linkonce_odr noundef float @_ZSt5floorf(float noundef %0) #4 comdat {
  %2 = alloca float, align 4
  store float %0, ptr %2, align 4, !tbaa !9
  %3 = load float, ptr %2, align 4, !tbaa !9
  %4 = call float @llvm.floor.f32(float %3)
  ret float %4
}

; Function Attrs: mustprogress uwtable
define noundef i32 @_ZNK3gmx8internal30AnalysisNeighborhoodSearchImpl16getGridCellIndexEPKf(ptr noundef nonnull align 8 dereferenceable(624) %0, ptr noundef %1) #0 align 2 {
  %3 = alloca ptr, align 8
  %4 = alloca ptr, align 8
  %5 = alloca [3 x i32], align 4
  %6 = alloca i32, align 4
  %7 = alloca i32, align 4
  %8 = alloca i32, align 4
  store ptr %0, ptr %3, align 8, !tbaa !4
  store ptr %1, ptr %4, align 8, !tbaa !55
  %9 = load ptr, ptr %3, align 8
  call void @llvm.lifetime.start.p0(i64 12, ptr %5) #20
  call void @llvm.lifetime.start.p0(i64 4, ptr %6) #20
  store i32 0, ptr %6, align 4, !tbaa !57
  br label %10

10:                                               ; preds = %51, %2
  %11 = load i32, ptr %6, align 4, !tbaa !57
  %12 = icmp slt i32 %11, 3
  br i1 %12, label %14, label %13

13:                                               ; preds = %10
  call void @llvm.lifetime.end.p0(i64 4, ptr %6) #20
  br label %54

14:                                               ; preds = %10
  call void @llvm.lifetime.start.p0(i64 4, ptr %7) #20
  %15 = load ptr, ptr %4, align 8, !tbaa !55
  %16 = load i32, ptr %6, align 4, !tbaa !57
  %17 = sext i32 %16 to i64
  %18 = getelementptr inbounds float, ptr %15, i64 %17
  %19 = load float, ptr %18, align 4, !tbaa !9
  %20 = call noundef float @_ZSt5floorf(float noundef %19)
  %21 = fptosi float %20 to i32
  store i32 %21, ptr %7, align 4, !tbaa !57
  %22 = getelementptr inbounds nuw %"class.gmx::internal::AnalysisNeighborhoodSearchImpl", ptr %9, i32 0, i32 12
  %23 = load i32, ptr %6, align 4, !tbaa !57
  %24 = sext i32 %23 to i64
  %25 = getelementptr inbounds [3 x i8], ptr %22, i64 0, i64 %24
  %26 = load i8, ptr %25, align 1, !tbaa !46, !range !184, !noundef !185
  %27 = trunc i8 %26 to i1
  br i1 %27, label %46, label %28

28:                                               ; preds = %14
  call void @llvm.lifetime.start.p0(i64 4, ptr %8) #20
  %29 = getelementptr inbounds nuw %"class.gmx::internal::AnalysisNeighborhoodSearchImpl", ptr %9, i32 0, i32 20
  %30 = load i32, ptr %6, align 4, !tbaa !57
  %31 = sext i32 %30 to i64
  %32 = getelementptr inbounds [3 x i32], ptr %29, i64 0, i64 %31
  %33 = load i32, ptr %32, align 4, !tbaa !57
  store i32 %33, ptr %8, align 4, !tbaa !57
  %34 = load i32, ptr %7, align 4, !tbaa !57
  %35 = icmp slt i32 %34, 0
  br i1 %35, label %36, label %37

36:                                               ; preds = %28
  store i32 0, ptr %7, align 4, !tbaa !57
  br label %45

37:                                               ; preds = %28
  %38 = load i32, ptr %7, align 4, !tbaa !57
  %39 = load i32, ptr %8, align 4, !tbaa !57
  %40 = icmp sge i32 %38, %39
  br i1 %40, label %41, label %44

41:                                               ; preds = %37
  %42 = load i32, ptr %8, align 4, !tbaa !57
  %43 = sub nsw i32 %42, 1
  store i32 %43, ptr %7, align 4, !tbaa !57
  br label %44

44:                                               ; preds = %41, %37
  br label %45

45:                                               ; preds = %44, %36
  call void @llvm.lifetime.end.p0(i64 4, ptr %8) #20
  br label %46

46:                                               ; preds = %45, %14
  %47 = load i32, ptr %7, align 4, !tbaa !57
  %48 = load i32, ptr %6, align 4, !tbaa !57
  %49 = sext i32 %48 to i64
  %50 = getelementptr inbounds [3 x i32], ptr %5, i64 0, i64 %49
  store i32 %47, ptr %50, align 4, !tbaa !57
  call void @llvm.lifetime.end.p0(i64 4, ptr %7) #20
  br label %51

51:                                               ; preds = %46
  %52 = load i32, ptr %6, align 4, !tbaa !57
  %53 = add nsw i32 %52, 1
  store i32 %53, ptr %6, align 4, !tbaa !57
  br label %10, !llvm.loop !226

54:                                               ; preds = %13
  %55 = getelementptr inbounds [3 x i32], ptr %5, i64 0, i64 0
  %56 = call noundef i32 @_ZNK3gmx8internal30AnalysisNeighborhoodSearchImpl16getGridCellIndexEPKi(ptr noundef nonnull align 8 dereferenceable(624) %9, ptr noundef %55)
  call void @llvm.lifetime.end.p0(i64 12, ptr %5) #20
  ret i32 %56
}