; Function Attrs: mustprogress nofree norecurse nosync nounwind willreturn memory(argmem: read) uwtable
define noundef i32 @_ZNK3gmx8internal30AnalysisNeighborhoodSearchImpl16getGridCellIndexEPKf(ptr noundef nonnull readonly align 8 captures(none) dereferenceable(624) %0, ptr noundef readonly captures(none) %1) local_unnamed_addr #20 align 2 {
  %3 = alloca [3 x i32], align 4
  call void @llvm.lifetime.start.p0(i64 12, ptr nonnull %3) #36
  %4 = getelementptr inbounds nuw i8, ptr %0, i64 442
  %5 = getelementptr inbounds nuw i8, ptr %0, i64 520
  br label %17

6:                                                ; preds = %31
  %7 = load i32, ptr %3, align 4, !tbaa !39
  %8 = getelementptr inbounds nuw i8, ptr %3, i64 4
  %9 = load i32, ptr %8, align 4, !tbaa !39
  %10 = load i32, ptr %5, align 8, !tbaa !39
  %11 = getelementptr inbounds nuw i8, ptr %3, i64 8
  %12 = load i32, ptr %11, align 4, !tbaa !39
  %13 = getelementptr inbounds nuw i8, ptr %0, i64 524
  %14 = load i32, ptr %13, align 4, !tbaa !39
  %15 = mul i32 %14, %12
  %reass.add.i = add i32 %15, %9
  %reass.mul.i = mul i32 %reass.add.i, %10
  %16 = add i32 %reass.mul.i, %7
  call void @llvm.lifetime.end.p0(i64 12, ptr nonnull %3) #36
  ret i32 %16

17:                                               ; preds = %2, %31
  %indvars.iv = phi i64 [ 0, %2 ], [ %indvars.iv.next, %31 ]
  %18 = getelementptr inbounds nuw float, ptr %1, i64 %indvars.iv
  %19 = load float, ptr %18, align 4, !tbaa !77
  %20 = tail call noundef float @llvm.floor.f32(float %19)
  %21 = fptosi float %20 to i32
  %22 = getelementptr inbounds nuw [3 x i8], ptr %4, i64 0, i64 %indvars.iv
  %23 = load i8, ptr %22, align 1, !tbaa !38, !range !88, !noundef !89
  %24 = trunc nuw i8 %23 to i1
  br i1 %24, label %31, label %25

25:                                               ; preds = %17
  %26 = icmp slt i32 %21, 0
  br i1 %26, label %31, label %27

27:                                               ; preds = %25
  %28 = getelementptr inbounds nuw [3 x i32], ptr %5, i64 0, i64 %indvars.iv
  %29 = load i32, ptr %28, align 4, !tbaa !39
  %.not = icmp sgt i32 %29, %21
  %30 = add nsw i32 %29, -1
  %spec.select = select i1 %.not, i32 %21, i32 %30
  br label %31

31:                                               ; preds = %27, %25, %17
  %.012 = phi i32 [ %21, %17 ], [ 0, %25 ], [ %spec.select, %27 ]
  %32 = getelementptr inbounds nuw [3 x i32], ptr %3, i64 0, i64 %indvars.iv
  store i32 %.012, ptr %32, align 4, !tbaa !39
  %indvars.iv.next = add nuw nsw i64 %indvars.iv, 1
  %exitcond.not = icmp eq i64 %indvars.iv.next, 3
  br i1 %exitcond.not, label %6, label %17, !llvm.loop !94
}